target datalayout = "e-m:e-p270:32:32-p271:32:32-p272:64:64-i64:64-i128:128-f80:128-n8:16:32:64-S128"
target triple = "x86_64-pc-linux-gnu"

%"struct.faiss::IndexPreTransform" = type <{ %"struct.faiss::Index.base", [4 x i8], %"class.std::vector", ptr, i8, [7 x i8] }>
%"struct.faiss::Index.base" = type <{ ptr, i32, [4 x i8], i64, i8, i8, [2 x i8], i32, float }>
%"class.std::vector" = type { %"struct.std::_Vector_base" }
%"struct.std::_Vector_base" = type { %"struct.std::_Vector_base<faiss::VectorTransform *, std::allocator<faiss::VectorTransform *>>::_Vector_impl" }
%"struct.std::_Vector_base<faiss::VectorTransform *, std::allocator<faiss::VectorTransform *>>::_Vector_impl" = type { %"struct.std::_Vector_base<faiss::VectorTransform *, std::allocator<faiss::VectorTransform *>>::_Vector_impl_data" }
%"struct.std::_Vector_base<faiss::VectorTransform *, std::allocator<faiss::VectorTransform *>>::_Vector_impl_data" = type { ptr, ptr, ptr }
%"struct.faiss::Index" = type <{ ptr, i32, [4 x i8], i64, i8, i8, [2 x i8], i32, float, [4 x i8] }>

; Function Attrs: mustprogress nounwind uwtable
define linkonce_odr void @_ZNSt15__new_allocatorIPN5faiss15VectorTransformEEC2Ev(ptr noundef nonnull align 1 dereferenceable(1) %0) unnamed_addr #0 comdat align 2 {
  %2 = alloca ptr, align 8
  store ptr %0, ptr %2, align 8, !tbaa !84
  ret void
}

; Function Attrs: mustprogress nounwind uwtable
define linkonce_odr void @_ZNSt12_Vector_baseIPN5faiss15VectorTransformESaIS2_EE17_Vector_impl_dataC2Ev(ptr noundef nonnull align 8 dereferenceable(24) %0) unnamed_addr #0 comdat align 2 {
  %2 = alloca ptr, align 8
  store ptr %0, ptr %2, align 8, !tbaa !79
  %3 = load ptr, ptr %2, align 8
  %4 = getelementptr inbounds nuw %"struct.std::_Vector_base<faiss::VectorTransform *, std::allocator<faiss::VectorTransform *>>::_Vector_impl_data", ptr %3, i32 0, i32 0
  store ptr null, ptr %4, align 8, !tbaa !81
  %5 = getelementptr inbounds nuw %"struct.std::_Vector_base<faiss::VectorTransform *, std::allocator<faiss::VectorTransform *>>::_Vector_impl_data", ptr %3, i32 0, i32 1
  store ptr null, ptr %5, align 8, !tbaa !82
  %6 = getelementptr inbounds nuw %"struct.std::_Vector_base<faiss::VectorTransform *, std::allocator<faiss::VectorTransform *>>::_Vector_impl_data", ptr %3, i32 0, i32 2
  store ptr null, ptr %6, align 8, !tbaa !83
  ret void
}

; Function Attrs: mustprogress nounwind uwtable
define linkonce_odr void @_ZNSaIPN5faiss15VectorTransformEEC2Ev(ptr noundef nonnull align 1 dereferenceable(1) %0) unnamed_addr #0 comdat align 2 {
  %2 = alloca ptr, align 8
  store ptr %0, ptr %2, align 8, !tbaa !77
  %3 = load ptr, ptr %2, align 8
  call void @_ZNSt15__new_allocatorIPN5faiss15VectorTransformEEC2Ev(ptr noundef nonnull align 1 dereferenceable(1) %3) #18
  ret void
}

; Function Attrs: mustprogress nounwind uwtable
define linkonce_odr void @_ZNSt12_Vector_baseIPN5faiss15VectorTransformESaIS2_EE12_Vector_implC2Ev(ptr noundef nonnull align 8 dereferenceable(24) %0) unnamed_addr #0 comdat align 2 {
  %2 = alloca ptr, align 8
  store ptr %0, ptr %2, align 8, !tbaa !75
  %3 = load ptr, ptr %2, align 8
  call void @_ZNSaIPN5faiss15VectorTransformEEC2Ev(ptr noundef nonnull align 1 dereferenceable(1) %3) #18
  call void @_ZNSt12_Vector_baseIPN5faiss15VectorTransformESaIS2_EE17_Vector_impl_dataC2Ev(ptr noundef nonnull align 8 dereferenceable(24) %3) #18
  ret void
}

; Function Attrs: mustprogress nounwind uwtable
define linkonce_odr void @_ZNSt12_Vector_baseIPN5faiss15VectorTransformESaIS2_EEC2Ev(ptr noundef nonnull align 8 dereferenceable(24) %0) unnamed_addr #0 comdat align 2 {
  %2 = alloca ptr, align 8
  store ptr %0, ptr %2, align 8, !tbaa !73
  %3 = load ptr, ptr %2, align 8
  %4 = getelementptr inbounds nuw %"struct.std::_Vector_base", ptr %3, i32 0, i32 0
  call void @_ZNSt12_Vector_baseIPN5faiss15VectorTransformESaIS2_EE12_Vector_implC2Ev(ptr noundef nonnull align 8 dereferenceable(24) %4) #18
  ret void
}

; Function Attrs: mustprogress nounwind uwtable
define linkonce_odr void @_ZNSt6vectorIPN5faiss15VectorTransformESaIS2_EEC2Ev(ptr noundef nonnull align 8 dereferenceable(24) %0) unnamed_addr #0 comdat align 2 {
  %2 = alloca ptr, align 8
  store ptr %0, ptr %2, align 8, !tbaa !71
  %3 = load ptr, ptr %2, align 8
  call void @_ZNSt12_Vector_baseIPN5faiss15VectorTransformESaIS2_EEC2Ev(ptr noundef nonnull align 8 dereferenceable(24) %3) #18
  ret void
}

; Function Attrs: mustprogress nounwind uwtable
define linkonce_odr void @_ZN5faiss5IndexC2ElNS_10MetricTypeE(ptr noundef nonnull align 8 dereferenceable(36) %0, i64 noundef %1, i32 noundef %2) unnamed_addr #0 comdat align 2 {
  %4 = alloca ptr, align 8
  %5 = alloca i64, align 8
  %6 = alloca i32, align 4
  store ptr %0, ptr %4, align 8, !tbaa !65
  store i64 %1, ptr %5, align 8, !tbaa !9
  store i32 %2, ptr %6, align 4, !tbaa !68
  %7 = load ptr, ptr %4, align 8
  store ptr getelementptr inbounds inrange(-16, 184) ({ [25 x ptr] }, ptr @_ZTVN5faiss5IndexE, i32 0, i32 0, i32 2), ptr %7, align 8, !tbaa !47
  %8 = getelementptr inbounds nuw %"struct.faiss::Index", ptr %7, i32 0, i32 1
  %9 = load i64, ptr %5, align 8, !tbaa !9
  %10 = trunc i64 %9 to i32
  store i32 %10, ptr %8, align 8, !tbaa !62
  %11 = getelementptr inbounds nuw %"struct.faiss::Index", ptr %7, i32 0, i32 3
  store i64 0, ptr %11, align 8, !tbaa !52
  %12 = getelementptr inbounds nuw %"struct.faiss::Index", ptr %7, i32 0, i32 4
  store i8 0, ptr %12, align 8, !tbaa !36
  %13 = getelementptr inbounds nuw %"struct.faiss::Index", ptr %7, i32 0, i32 5
  store i8 1, ptr %13, align 1, !tbaa !27
  %14 = getelementptr inbounds nuw %"struct.faiss::Index", ptr %7, i32 0, i32 7
  %15 = load i32, ptr %6, align 4, !tbaa !68
  store i32 %15, ptr %14, align 4, !tbaa !69
  %16 = getelementptr inbounds nuw %"struct.faiss::Index", ptr %7, i32 0, i32 8
  store float 0.000000e+00, ptr %16, align 8, !tbaa !70
  ret void
}

; Function Attrs: mustprogress nounwind uwtable
define void @_ZN5faiss17IndexPreTransformC2EPNS_5IndexE(ptr noundef nonnull align 8 dereferenceable(73) %0, ptr noundef %1) unnamed_addr #0 align 2 {
  %3 = alloca ptr, align 8
  %4 = alloca ptr, align 8
  store ptr %0, ptr %3, align 8, !tbaa !4
  store ptr %1, ptr %4, align 8, !tbaa !65
  %5 = load ptr, ptr %3, align 8
  %6 = load ptr, ptr %4, align 8, !tbaa !65
  %7 = getelementptr inbounds nuw %"struct.faiss::Index", ptr %6, i32 0, i32 1
  %8 = load i32, ptr %7, align 8, !tbaa !62
  %9 = sext i32 %8 to i64
  %10 = load ptr, ptr %4, align 8, !tbaa !65
  %11 = getelementptr inbounds nuw %"struct.faiss::Index", ptr %10, i32 0, i32 7
  %12 = load i32, ptr %11, align 4, !tbaa !69
  call void @_ZN5faiss5IndexC2ElNS_10MetricTypeE(ptr noundef nonnull align 8 dereferenceable(36) %5, i64 noundef %9, i32 noundef %12)
  store ptr getelementptr inbounds inrange(-16, 184) ({ [25 x ptr] }, ptr @_ZTVN5faiss17IndexPreTransformE, i32 0, i32 0, i32 2), ptr %5, align 8, !tbaa !47
  %13 = getelementptr inbounds nuw %"struct.faiss::IndexPreTransform", ptr %5, i32 0, i32 2
  call void @_ZNSt6vectorIPN5faiss15VectorTransformESaIS2_EEC2Ev(ptr noundef nonnull align 8 dereferenceable(24) %13) #18
  %14 = getelementptr inbounds nuw %"struct.faiss::IndexPreTransform", ptr %5, i32 0, i32 3
  %15 = load ptr, ptr %4, align 8, !tbaa !65
  store ptr %15, ptr %14, align 8, !tbaa !15
  %16 = getelementptr inbounds nuw %"struct.faiss::IndexPreTransform", ptr %5, i32 0, i32 4
  store i8 0, ptr %16, align 8, !tbaa !67
  %17 = load ptr, ptr %4, align 8, !tbaa !65
  %18 = getelementptr inbounds nuw %"struct.faiss::Index", ptr %17, i32 0, i32 5
  %19 = load i8, ptr %18, align 1, !tbaa !27, !range !28, !noundef !29
  %20 = trunc i8 %19 to i1
  %21 = getelementptr inbounds nuw %"struct.faiss::Index", ptr %5, i32 0, i32 5
  %22 = zext i1 %20 to i8
  store i8 %22, ptr %21, align 1, !tbaa !27
  %23 = load ptr, ptr %4, align 8, !tbaa !65
  %24 = getelementptr inbounds nuw %"struct.faiss::Index", ptr %23, i32 0, i32 3
  %25 = load i64, ptr %24, align 8, !tbaa !52
  %26 = getelementptr inbounds nuw %"struct.faiss::Index", ptr %5, i32 0, i32 3
  store i64 %25, ptr %26, align 8, !tbaa !52
  ret void
}