; Function Attrs: mustprogress nofree norecurse nosync nounwind willreturn memory(argmem: readwrite) uwtable
define void @_ZN5faiss17IndexPreTransformC2EPNS_5IndexE(ptr noundef nonnull writeonly align 8 captures(none) dereferenceable(73) initializes((0, 12), (16, 26), (28, 36), (40, 73)) %0, ptr noundef %1) unnamed_addr #4 align 2 {
  %3 = getelementptr inbounds nuw i8, ptr %1, i64 8
  %4 = load i32, ptr %3, align 8, !tbaa !59
  %5 = getelementptr inbounds nuw i8, ptr %1, i64 28
  %6 = load i32, ptr %5, align 4, !tbaa !80
  %7 = getelementptr inbounds nuw i8, ptr %0, i64 8
  store i32 %4, ptr %7, align 8, !tbaa !59
  %8 = getelementptr inbounds nuw i8, ptr %0, i64 16
  store i64 0, ptr %8, align 8, !tbaa !52
  %9 = getelementptr inbounds nuw i8, ptr %0, i64 24
  store i8 0, ptr %9, align 8, !tbaa !32
  %10 = getelementptr inbounds nuw i8, ptr %0, i64 25
  store i8 1, ptr %10, align 1, !tbaa !21
  %11 = getelementptr inbounds nuw i8, ptr %0, i64 28
  store i32 %6, ptr %11, align 4, !tbaa !80
  %12 = getelementptr inbounds nuw i8, ptr %0, i64 32
  store float 0.000000e+00, ptr %12, align 8, !tbaa !81
  store ptr getelementptr inbounds nuw inrange(-16, 184) (i8, ptr @_ZTVN5faiss17IndexPreTransformE, i64 16), ptr %0, align 8, !tbaa !42
  %13 = getelementptr inbounds nuw i8, ptr %0, i64 40
  tail call void @llvm.memset.p0.i64(ptr noundef nonnull align 8 dereferenceable(24) %13, i8 0, i64 24, i1 false)
  %14 = getelementptr inbounds nuw i8, ptr %0, i64 64
  store ptr %1, ptr %14, align 8, !tbaa !4
  %15 = getelementptr inbounds nuw i8, ptr %0, i64 72
  store i8 0, ptr %15, align 8, !tbaa !82
  %16 = getelementptr inbounds nuw i8, ptr %1, i64 25
  %17 = load i8, ptr %16, align 1, !tbaa !21, !range !22, !noundef !23
  store i8 %17, ptr %10, align 1, !tbaa !21
  %18 = getelementptr inbounds nuw i8, ptr %1, i64 16
  %19 = load i64, ptr %18, align 8, !tbaa !52
  store i64 %19, ptr %8, align 8, !tbaa !52
  ret void
}